target datalayout = "e-m:e-p270:32:32-p271:32:32-p272:64:64-i64:64-i128:128-f80:128-n8:16:32:64-S128"
target triple = "x86_64-pc-linux-gnu"

%struct._zend_refcounted_h = type { i32, %union.anon.5 }
%union.anon.5 = type { i32 }
%struct.smart_str = type { ptr, i64 }
%struct.anon.3 = type { i8, [3 x i8], i32, ptr, ptr, ptr, i32, i32, ptr, ptr, ptr, ptr, i32, ptr }
%struct._zend_arg_info = type { ptr, %struct.zend_type, ptr }
%struct.zend_type = type { ptr, i32 }
%struct._zend_internal_arg_info = type { ptr, %struct.zend_type, ptr }
%struct._zend_string = type { %struct._zend_refcounted_h, i64, i64, [1 x i8] }

@.str.17 = private unnamed_addr constant [3 x i8] c", \00", align 1
@.str.18 = private unnamed_addr constant [2 x i8] c"?\00", align 1

; Function Attrs: alwaysinline nounwind uwtable
define internal i64 @smart_str_alloc(ptr noundef %0, i64 noundef %1, i1 noundef zeroext %2) #3 {
  %4 = alloca ptr, align 8
  %5 = alloca i64, align 8
  %6 = alloca i8, align 1
  store ptr %0, ptr %4, align 8, !tbaa !57
  store i64 %1, ptr %5, align 8, !tbaa !68
  %7 = zext i1 %2 to i8
  store i8 %7, ptr %6, align 1, !tbaa !69
  %8 = load ptr, ptr %4, align 8, !tbaa !57
  %9 = getelementptr inbounds nuw %struct.smart_str, ptr %8, i32 0, i32 0
  %10 = load ptr, ptr %9, align 8, !tbaa !55
  %11 = icmp ne ptr %10, null
  %12 = xor i1 %11, true
  %13 = xor i1 %12, true
  %14 = xor i1 %13, true
  %15 = zext i1 %14 to i32
  %16 = sext i32 %15 to i64
  %17 = call i64 @llvm.expect.i64(i64 %16, i64 0)
  %18 = icmp ne i64 %17, 0
  br i1 %18, label %19, label %20

19:                                               ; preds = %3
  br label %40

20:                                               ; preds = %3
  %21 = load ptr, ptr %4, align 8, !tbaa !57
  %22 = getelementptr inbounds nuw %struct.smart_str, ptr %21, i32 0, i32 0
  %23 = load ptr, ptr %22, align 8, !tbaa !55
  %24 = getelementptr inbounds nuw %struct._zend_string, ptr %23, i32 0, i32 2
  %25 = load i64, ptr %24, align 8, !tbaa !126
  %26 = load i64, ptr %5, align 8, !tbaa !68
  %27 = add i64 %26, %25
  store i64 %27, ptr %5, align 8, !tbaa !68
  %28 = load i64, ptr %5, align 8, !tbaa !68
  %29 = load ptr, ptr %4, align 8, !tbaa !57
  %30 = getelementptr inbounds nuw %struct.smart_str, ptr %29, i32 0, i32 1
  %31 = load i64, ptr %30, align 8, !tbaa !140
  %32 = icmp uge i64 %28, %31
  %33 = xor i1 %32, true
  %34 = xor i1 %33, true
  %35 = zext i1 %34 to i32
  %36 = sext i32 %35 to i64
  %37 = call i64 @llvm.expect.i64(i64 %36, i64 0)
  %38 = icmp ne i64 %37, 0
  br i1 %38, label %39, label %50

39:                                               ; preds = %20
  br label %40

40:                                               ; preds = %39, %19
  %41 = load i8, ptr %6, align 1, !tbaa !69, !range !71, !noundef !72
  %42 = trunc i8 %41 to i1
  br i1 %42, label %43, label %46

43:                                               ; preds = %40
  %44 = load ptr, ptr %4, align 8, !tbaa !57
  %45 = load i64, ptr %5, align 8, !tbaa !68
  call void @smart_str_realloc(ptr noundef %44, i64 noundef %45)
  br label %49

46:                                               ; preds = %40
  %47 = load ptr, ptr %4, align 8, !tbaa !57
  %48 = load i64, ptr %5, align 8, !tbaa !68
  call void @smart_str_erealloc(ptr noundef %47, i64 noundef %48)
  br label %49

49:                                               ; preds = %46, %43
  br label %50

50:                                               ; preds = %49, %20
  br label %51

51:                                               ; preds = %50
  %52 = load i64, ptr %5, align 8, !tbaa !68
  ret i64 %52
}

; Function Attrs: alwaysinline nounwind uwtable
define internal void @smart_str_appendc_ex(ptr noundef %0, i8 noundef signext %1, i1 noundef zeroext %2) #3 {
  %4 = alloca ptr, align 8
  %5 = alloca i8, align 1
  %6 = alloca i8, align 1
  %7 = alloca i64, align 8
  store ptr %0, ptr %4, align 8, !tbaa !57
  store i8 %1, ptr %5, align 1, !tbaa !31
  %8 = zext i1 %2 to i8
  store i8 %8, ptr %6, align 1, !tbaa !69
  call void @llvm.lifetime.start.p0(i64 8, ptr %7) #14
  %9 = load ptr, ptr %4, align 8, !tbaa !57
  %10 = load i8, ptr %6, align 1, !tbaa !69, !range !71, !noundef !72
  %11 = trunc i8 %10 to i1
  %12 = call i64 @smart_str_alloc(ptr noundef %9, i64 noundef 1, i1 noundef zeroext %11)
  store i64 %12, ptr %7, align 8, !tbaa !68
  %13 = load i8, ptr %5, align 1, !tbaa !31
  %14 = load ptr, ptr %4, align 8, !tbaa !57
  %15 = getelementptr inbounds nuw %struct.smart_str, ptr %14, i32 0, i32 0
  %16 = load ptr, ptr %15, align 8, !tbaa !55
  %17 = getelementptr inbounds nuw %struct._zend_string, ptr %16, i32 0, i32 3
  %18 = load i64, ptr %7, align 8, !tbaa !68
  %19 = sub i64 %18, 1
  %20 = getelementptr inbounds nuw [1 x i8], ptr %17, i64 0, i64 %19
  store i8 %13, ptr %20, align 1, !tbaa !31
  %21 = load i64, ptr %7, align 8, !tbaa !68
  %22 = load ptr, ptr %4, align 8, !tbaa !57
  %23 = getelementptr inbounds nuw %struct.smart_str, ptr %22, i32 0, i32 0
  %24 = load ptr, ptr %23, align 8, !tbaa !55
  %25 = getelementptr inbounds nuw %struct._zend_string, ptr %24, i32 0, i32 2
  store i64 %21, ptr %25, align 8, !tbaa !126
  call void @llvm.lifetime.end.p0(i64 8, ptr %7) #14
  ret void
}

; Function Attrs: alwaysinline nounwind uwtable
define internal void @smart_str_appendl_ex(ptr noundef %0, ptr noundef %1, i64 noundef %2, i1 noundef zeroext %3) #3 {
  %5 = alloca ptr, align 8
  %6 = alloca ptr, align 8
  %7 = alloca i64, align 8
  %8 = alloca i8, align 1
  %9 = alloca i64, align 8
  store ptr %0, ptr %5, align 8, !tbaa !57
  store ptr %1, ptr %6, align 8, !tbaa !59
  store i64 %2, ptr %7, align 8, !tbaa !68
  %10 = zext i1 %3 to i8
  store i8 %10, ptr %8, align 1, !tbaa !69
  call void @llvm.lifetime.start.p0(i64 8, ptr %9) #14
  %11 = load ptr, ptr %5, align 8, !tbaa !57
  %12 = load i64, ptr %7, align 8, !tbaa !68
  %13 = load i8, ptr %8, align 1, !tbaa !69, !range !71, !noundef !72
  %14 = trunc i8 %13 to i1
  %15 = call i64 @smart_str_alloc(ptr noundef %11, i64 noundef %12, i1 noundef zeroext %14)
  store i64 %15, ptr %9, align 8, !tbaa !68
  %16 = load ptr, ptr %5, align 8, !tbaa !57
  %17 = getelementptr inbounds nuw %struct.smart_str, ptr %16, i32 0, i32 0
  %18 = load ptr, ptr %17, align 8, !tbaa !55
  %19 = getelementptr inbounds nuw %struct._zend_string, ptr %18, i32 0, i32 3
  %20 = getelementptr inbounds [1 x i8], ptr %19, i64 0, i64 0
  %21 = load ptr, ptr %5, align 8, !tbaa !57
  %22 = getelementptr inbounds nuw %struct.smart_str, ptr %21, i32 0, i32 0
  %23 = load ptr, ptr %22, align 8, !tbaa !55
  %24 = getelementptr inbounds nuw %struct._zend_string, ptr %23, i32 0, i32 2
  %25 = load i64, ptr %24, align 8, !tbaa !126
  %26 = getelementptr inbounds nuw i8, ptr %20, i64 %25
  %27 = load ptr, ptr %6, align 8, !tbaa !59
  %28 = load i64, ptr %7, align 8, !tbaa !68
  call void @llvm.memcpy.p0.p0.i64(ptr align 1 %26, ptr align 1 %27, i64 %28, i1 false)
  %29 = load i64, ptr %9, align 8, !tbaa !68
  %30 = load ptr, ptr %5, align 8, !tbaa !57
  %31 = getelementptr inbounds nuw %struct.smart_str, ptr %30, i32 0, i32 0
  %32 = load ptr, ptr %31, align 8, !tbaa !55
  %33 = getelementptr inbounds nuw %struct._zend_string, ptr %32, i32 0, i32 2
  store i64 %29, ptr %33, align 8, !tbaa !126
  call void @llvm.lifetime.end.p0(i64 8, ptr %9) #14
  ret void
}

; Function Attrs: alwaysinline nounwind uwtable
define internal void @smart_str_appendc(ptr noundef %0, i8 noundef signext %1) #3 {
  %3 = alloca ptr, align 8
  %4 = alloca i8, align 1
  store ptr %0, ptr %3, align 8, !tbaa !57
  store i8 %1, ptr %4, align 1, !tbaa !31
  %5 = load ptr, ptr %3, align 8, !tbaa !57
  %6 = load i8, ptr %4, align 1, !tbaa !31
  call void @smart_str_appendc_ex(ptr noundef %5, i8 noundef signext %6, i1 noundef zeroext false)
  ret void
}

; Function Attrs: alwaysinline nounwind uwtable
define internal void @smart_str_appends(ptr noundef %0, ptr noundef %1) #3 {
  %3 = alloca ptr, align 8
  %4 = alloca ptr, align 8
  store ptr %0, ptr %3, align 8, !tbaa !57
  store ptr %1, ptr %4, align 8, !tbaa !59
  %5 = load ptr, ptr %3, align 8, !tbaa !57
  %6 = load ptr, ptr %4, align 8, !tbaa !59
  %7 = load ptr, ptr %4, align 8, !tbaa !59
  %8 = call i64 @strlen(ptr noundef %7) #15
  call void @smart_str_appendl_ex(ptr noundef %5, ptr noundef %6, i64 noundef %8, i1 noundef zeroext false)
  ret void
}

; Function Attrs: inlinehint nounwind uwtable
define internal void @phpdbg_append_individual_arg(ptr noundef %0, i32 noundef %1, ptr noundef %2, ptr noundef %3) #4 {
  %5 = alloca ptr, align 8
  %6 = alloca i32, align 4
  %7 = alloca ptr, align 8
  %8 = alloca ptr, align 8
  %9 = alloca ptr, align 8
  %10 = alloca ptr, align 8
  %11 = alloca ptr, align 8
  store ptr %0, ptr %5, align 8, !tbaa !57
  store i32 %1, ptr %6, align 4, !tbaa !18
  store ptr %2, ptr %7, align 8, !tbaa !61
  store ptr %3, ptr %8, align 8, !tbaa !32
  call void @llvm.lifetime.start.p0(i64 8, ptr %9) #14
  %12 = load ptr, ptr %7, align 8, !tbaa !61
  %13 = getelementptr inbounds nuw %struct.anon.3, ptr %12, i32 0, i32 8
  %14 = load ptr, ptr %13, align 8, !tbaa !31
  store ptr %14, ptr %9, align 8, !tbaa !62
  call void @llvm.lifetime.start.p0(i64 8, ptr %10) #14
  store ptr null, ptr %10, align 8, !tbaa !59
  %15 = load i32, ptr %6, align 4, !tbaa !18
  %16 = icmp ne i32 %15, 0
  br i1 %16, label %17, label %19

17:                                               ; preds = %4
  %18 = load ptr, ptr %5, align 8, !tbaa !57
  call void @smart_str_appends(ptr noundef %18, ptr noundef @.str.17)
  br label %19

19:                                               ; preds = %17, %4
  %20 = load i32, ptr %6, align 4, !tbaa !18
  %21 = load ptr, ptr %7, align 8, !tbaa !61
  %22 = getelementptr inbounds nuw %struct.anon.3, ptr %21, i32 0, i32 6
  %23 = load i32, ptr %22, align 8, !tbaa !31
  %24 = icmp ult i32 %20, %23
  br i1 %24, label %25, label %60

25:                                               ; preds = %19
  %26 = load ptr, ptr %9, align 8, !tbaa !62
  %27 = icmp ne ptr %26, null
  br i1 %27, label %28, label %50

28:                                               ; preds = %25
  %29 = load ptr, ptr %7, align 8, !tbaa !61
  %30 = load i8, ptr %29, align 8, !tbaa !31
  %31 = zext i8 %30 to i32
  %32 = icmp eq i32 %31, 1
  br i1 %32, label %33, label %40

33:                                               ; preds = %28
  %34 = load ptr, ptr %9, align 8, !tbaa !62
  %35 = load i32, ptr %6, align 4, !tbaa !18
  %36 = zext i32 %35 to i64
  %37 = getelementptr inbounds nuw %struct._zend_arg_info, ptr %34, i64 %36
  %38 = getelementptr inbounds nuw %struct._zend_internal_arg_info, ptr %37, i32 0, i32 0
  %39 = load ptr, ptr %38, align 8, !tbaa !63
  store ptr %39, ptr %10, align 8, !tbaa !59
  br label %49

40:                                               ; preds = %28
  %41 = load ptr, ptr %9, align 8, !tbaa !62
  %42 = load i32, ptr %6, align 4, !tbaa !18
  %43 = zext i32 %42 to i64
  %44 = getelementptr inbounds nuw %struct._zend_arg_info, ptr %41, i64 %43
  %45 = getelementptr inbounds nuw %struct._zend_arg_info, ptr %44, i32 0, i32 0
  %46 = load ptr, ptr %45, align 8, !tbaa !66
  %47 = getelementptr inbounds nuw %struct._zend_string, ptr %46, i32 0, i32 3
  %48 = getelementptr inbounds [1 x i8], ptr %47, i64 0, i64 0
  store ptr %48, ptr %10, align 8, !tbaa !59
  br label %49

49:                                               ; preds = %40, %33
  br label %50

50:                                               ; preds = %49, %25
  %51 = load ptr, ptr %5, align 8, !tbaa !57
  %52 = load ptr, ptr %10, align 8, !tbaa !59
  %53 = icmp ne ptr %52, null
  br i1 %53, label %54, label %56

54:                                               ; preds = %50
  %55 = load ptr, ptr %10, align 8, !tbaa !59
  br label %57

56:                                               ; preds = %50
  br label %57

57:                                               ; preds = %56, %54
  %58 = phi ptr [ %55, %54 ], [ @.str.18, %56 ]
  call void @smart_str_appends(ptr noundef %51, ptr noundef %58)
  %59 = load ptr, ptr %5, align 8, !tbaa !57
  call void @smart_str_appendc(ptr noundef %59, i8 noundef signext 61)
  br label %60

60:                                               ; preds = %57, %19
  call void @llvm.lifetime.start.p0(i64 8, ptr %11) #14
  %61 = load ptr, ptr %8, align 8, !tbaa !32
  %62 = call ptr @phpdbg_short_zval_print(ptr noundef %61, i32 noundef 40)
  store ptr %62, ptr %11, align 8, !tbaa !59
  %63 = load ptr, ptr %5, align 8, !tbaa !57
  %64 = load ptr, ptr %11, align 8, !tbaa !59
  call void @smart_str_appends(ptr noundef %63, ptr noundef %64)
  %65 = load ptr, ptr %11, align 8, !tbaa !59
  call void @_efree(ptr noundef %65)
  call void @llvm.lifetime.end.p0(i64 8, ptr %11) #14
  call void @llvm.lifetime.end.p0(i64 8, ptr %10) #14
  call void @llvm.lifetime.end.p0(i64 8, ptr %9) #14
  ret void
}