; Function Attrs: inlinehint nounwind uwtable
define internal fastcc void @phpdbg_append_individual_arg(ptr noundef nonnull %0, i32 noundef %1, ptr noundef readonly captures(none) %2, ptr noundef %3) unnamed_addr #3 {
  %5 = getelementptr inbounds nuw i8, ptr %2, i64 40
  %6 = load ptr, ptr %5, align 8, !tbaa !27
  %.not = icmp eq i32 %1, 0
  br i1 %.not, label %22, label %7

7:                                                ; preds = %4
  %8 = load ptr, ptr %0, align 8, !tbaa !45
  %.not.i27 = icmp eq ptr %8, null
  br i1 %.not.i27, label %15, label %9, !prof !52

9:                                                ; preds = %7
  %10 = getelementptr inbounds nuw i8, ptr %8, i64 16
  %11 = load i64, ptr %10, align 8, !tbaa !43
  %12 = add i64 %11, 2
  %13 = getelementptr inbounds nuw i8, ptr %0, i64 8
  %14 = load i64, ptr %13, align 8, !tbaa !47
  %.not12.i28 = icmp ult i64 %12, %14
  br i1 %.not12.i28, label %smart_str_alloc.exit31, label %15, !prof !48

15:                                               ; preds = %9, %7
  %.0.i29 = phi i64 [ 2, %7 ], [ %12, %9 ]
  tail call void @smart_str_erealloc(ptr noundef nonnull %0, i64 noundef %.0.i29) #11
  %.pre = load ptr, ptr %0, align 8, !tbaa !45
  %.phi.trans.insert = getelementptr inbounds nuw i8, ptr %.pre, i64 16
  %.pre32 = load i64, ptr %.phi.trans.insert, align 8, !tbaa !43
  br label %smart_str_alloc.exit31

smart_str_alloc.exit31:                           ; preds = %9, %15
  %16 = phi i64 [ %.pre32, %15 ], [ %11, %9 ]
  %17 = phi ptr [ %.pre, %15 ], [ %8, %9 ]
  %.1.i30 = phi i64 [ %.0.i29, %15 ], [ %12, %9 ]
  %18 = getelementptr inbounds nuw i8, ptr %17, i64 24
  %19 = getelementptr inbounds nuw i8, ptr %18, i64 %16
  store i16 8236, ptr %19, align 1
  %20 = load ptr, ptr %0, align 8, !tbaa !45
  %21 = getelementptr inbounds nuw i8, ptr %20, i64 16
  store i64 %.1.i30, ptr %21, align 8, !tbaa !43
  br label %22

22:                                               ; preds = %smart_str_alloc.exit31, %4
  %23 = getelementptr inbounds nuw i8, ptr %2, i64 32
  %24 = load i32, ptr %23, align 8, !tbaa !27
  %25 = icmp ult i32 %1, %24
  br i1 %25, label %26, label %60

26:                                               ; preds = %22
  %.not20 = icmp eq ptr %6, null
  br i1 %.not20, label %33, label %27

27:                                               ; preds = %26
  %28 = load i8, ptr %2, align 8, !tbaa !27
  %29 = icmp eq i8 %28, 1
  %30 = zext i32 %1 to i64
  %31 = getelementptr inbounds nuw %struct._zend_arg_info, ptr %6, i64 %30
  %32 = load ptr, ptr %31, align 8, !tbaa !57
  %spec.select.idx = select i1 %29, i64 0, i64 24
  %spec.select = getelementptr inbounds nuw i8, ptr %32, i64 %spec.select.idx
  br label %33

33:                                               ; preds = %27, %26
  %.0 = phi ptr [ null, %26 ], [ %spec.select, %27 ]
  %.not21 = icmp eq ptr %.0, null
  %34 = select i1 %.not21, ptr @.str.18, ptr %.0
  %35 = tail call i64 @strlen(ptr noundef nonnull dereferenceable(1) %34) #12
  %36 = load ptr, ptr %0, align 8, !tbaa !45
  %.not.i22 = icmp eq ptr %36, null
  br i1 %.not.i22, label %43, label %37, !prof !52

37:                                               ; preds = %33
  %38 = getelementptr inbounds nuw i8, ptr %36, i64 16
  %39 = load i64, ptr %38, align 8, !tbaa !43
  %40 = add i64 %39, %35
  %41 = getelementptr inbounds nuw i8, ptr %0, i64 8
  %42 = load i64, ptr %41, align 8, !tbaa !47
  %.not12.i23 = icmp ult i64 %40, %42
  br i1 %.not12.i23, label %44, label %43, !prof !48

43:                                               ; preds = %37, %33
  %.0.i24 = phi i64 [ %35, %33 ], [ %40, %37 ]
  tail call void @smart_str_erealloc(ptr noundef nonnull %0, i64 noundef %.0.i24) #11
  %.pre33 = load ptr, ptr %0, align 8, !tbaa !45
  %.phi.trans.insert34 = getelementptr inbounds nuw i8, ptr %.pre33, i64 16
  %.pre35 = load i64, ptr %.phi.trans.insert34, align 8, !tbaa !43
  br label %44

44:                                               ; preds = %43, %37
  %45 = phi i64 [ %.pre35, %43 ], [ %39, %37 ]
  %46 = phi ptr [ %.pre33, %43 ], [ %36, %37 ]
  %.1.i25 = phi i64 [ %.0.i24, %43 ], [ %40, %37 ]
  %47 = getelementptr inbounds nuw i8, ptr %46, i64 24
  %48 = getelementptr inbounds nuw i8, ptr %47, i64 %45
  tail call void @llvm.memcpy.p0.p0.i64(ptr nonnull align 1 %48, ptr nonnull align 1 %34, i64 %35, i1 false)
  %49 = load ptr, ptr %0, align 8, !tbaa !45
  %50 = getelementptr inbounds nuw i8, ptr %49, i64 16
  store i64 %.1.i25, ptr %50, align 8, !tbaa !43
  %51 = add i64 %.1.i25, 1
  %52 = getelementptr inbounds nuw i8, ptr %0, i64 8
  %53 = load i64, ptr %52, align 8, !tbaa !47
  %.not12.i.i = icmp ult i64 %51, %53
  br i1 %.not12.i.i, label %smart_str_appendc_ex.exit, label %54, !prof !48

54:                                               ; preds = %44
  tail call void @smart_str_erealloc(ptr noundef nonnull %0, i64 noundef %51) #11
  %.pre36 = load ptr, ptr %0, align 8, !tbaa !45
  br label %smart_str_appendc_ex.exit

smart_str_appendc_ex.exit:                        ; preds = %44, %54
  %55 = phi ptr [ %49, %44 ], [ %.pre36, %54 ]
  %56 = getelementptr inbounds nuw i8, ptr %55, i64 24
  %57 = getelementptr inbounds nuw [1 x i8], ptr %56, i64 0, i64 %.1.i25
  store i8 61, ptr %57, align 1, !tbaa !27
  %58 = load ptr, ptr %0, align 8, !tbaa !45
  %59 = getelementptr inbounds nuw i8, ptr %58, i64 16
  store i64 %51, ptr %59, align 8, !tbaa !43
  br label %60

60:                                               ; preds = %smart_str_appendc_ex.exit, %22
  %61 = tail call ptr @phpdbg_short_zval_print(ptr noundef %3, i32 noundef 40) #11
  %62 = tail call i64 @strlen(ptr noundef nonnull dereferenceable(1) %61) #12
  %63 = load ptr, ptr %0, align 8, !tbaa !45
  %.not.i = icmp eq ptr %63, null
  br i1 %.not.i, label %70, label %64, !prof !52

64:                                               ; preds = %60
  %65 = getelementptr inbounds nuw i8, ptr %63, i64 16
  %66 = load i64, ptr %65, align 8, !tbaa !43
  %67 = add i64 %66, %62
  %68 = getelementptr inbounds nuw i8, ptr %0, i64 8
  %69 = load i64, ptr %68, align 8, !tbaa !47
  %.not12.i = icmp ult i64 %67, %69
  br i1 %.not12.i, label %smart_str_alloc.exit, label %70, !prof !48

70:                                               ; preds = %64, %60
  %.0.i = phi i64 [ %62, %60 ], [ %67, %64 ]
  tail call void @smart_str_erealloc(ptr noundef nonnull %0, i64 noundef %.0.i) #11
  %.pre37 = load ptr, ptr %0, align 8, !tbaa !45
  %.phi.trans.insert38 = getelementptr inbounds nuw i8, ptr %.pre37, i64 16
  %.pre39 = load i64, ptr %.phi.trans.insert38, align 8, !tbaa !43
  br label %smart_str_alloc.exit

smart_str_alloc.exit:                             ; preds = %64, %70
  %71 = phi i64 [ %.pre39, %70 ], [ %66, %64 ]
  %72 = phi ptr [ %.pre37, %70 ], [ %63, %64 ]
  %.1.i = phi i64 [ %.0.i, %70 ], [ %67, %64 ]
  %73 = getelementptr inbounds nuw i8, ptr %72, i64 24
  %74 = getelementptr inbounds nuw i8, ptr %73, i64 %71
  tail call void @llvm.memcpy.p0.p0.i64(ptr nonnull align 1 %74, ptr nonnull align 1 %61, i64 %62, i1 false)
  %75 = load ptr, ptr %0, align 8, !tbaa !45
  %76 = getelementptr inbounds nuw i8, ptr %75, i64 16
  store i64 %.1.i, ptr %76, align 8, !tbaa !43
  tail call void @_efree(ptr noundef nonnull %61) #11
  ret void
}